; Function Attrs: mustprogress uwtable
define dso_local void @_ZN4absl24synchronization_internal11GraphCycles16UpdateStackTraceENS0_7GraphIdEiPFiPPviE(ptr noundef nonnull readonly align 8 captures(none) dereferenceable(8) %0, i64 %1, i32 noundef %2, ptr noundef readonly captures(none) %3) local_unnamed_addr #0 align 2 {
  %5 = load ptr, ptr %0, align 8, !tbaa !4
  %.val = load ptr, ptr %5, align 8, !tbaa !19
  %6 = and i64 %1, 4294967295
  %7 = getelementptr inbounds nuw ptr, ptr %.val, i64 %6
  %8 = load ptr, ptr %7, align 8, !tbaa !20
  %9 = getelementptr inbounds nuw i8, ptr %8, i64 4
  %10 = load i32, ptr %9, align 4, !tbaa !47
  %11 = lshr i64 %1, 32
  %12 = trunc nuw i64 %11 to i32
  %13 = icmp ne i32 %10, %12
  %14 = icmp eq ptr %8, null
  %15 = or i1 %14, %13
  br i1 %15, label %23, label %16

16:                                               ; preds = %4
  %17 = getelementptr inbounds nuw i8, ptr %8, i64 136
  %18 = load i32, ptr %17, align 8, !tbaa !49
  %.not = icmp slt i32 %18, %2
  br i1 %.not, label %19, label %23

19:                                               ; preds = %16
  %20 = getelementptr inbounds nuw i8, ptr %8, i64 144
  %21 = tail call noundef i32 %3(ptr noundef nonnull %20, i32 noundef 40)
  %22 = getelementptr inbounds nuw i8, ptr %8, i64 140
  store i32 %21, ptr %22, align 4, !tbaa !48
  store i32 %2, ptr %17, align 8, !tbaa !49
  br label %23

23:                                               ; preds = %4, %16, %19
  ret void
}